target datalayout = "e-m:e-p270:32:32-p271:32:32-p272:64:64-i64:64-i128:128-f80:128-n8:16:32:64-S128"
target triple = "x86_64-pc-linux-gnu"

%struct.anon.9 = type { i32, ptr, ptr }

; Function Attrs: mustprogress nounwind uwtable
define internal noundef ptr @_ZL15errno_to_stringib(i32 noundef %0, i1 noundef zeroext %1) #1 {
  %3 = alloca i32, align 4
  %4 = alloca i8, align 1
  %5 = alloca i32, align 4
  store i32 %0, ptr %3, align 4
  %6 = zext i1 %1 to i8
  store i8 %6, ptr %4, align 1
  store i32 0, ptr %5, align 4
  br label %7

7:                                                ; preds = %24, %2
  %8 = load i32, ptr %5, align 4
  %9 = sext i32 %8 to i64
  %10 = getelementptr inbounds [80 x %struct.anon.9], ptr @_ZZL15errno_to_stringibE5table, i64 0, i64 %9
  %11 = getelementptr inbounds %struct.anon.9, ptr %10, i32 0, i32 0
  %12 = load i32, ptr %11, align 8
  %13 = icmp ne i32 %12, -1
  br i1 %13, label %14, label %22

14:                                               ; preds = %7
  %15 = load i32, ptr %5, align 4
  %16 = sext i32 %15 to i64
  %17 = getelementptr inbounds [80 x %struct.anon.9], ptr @_ZZL15errno_to_stringibE5table, i64 0, i64 %16
  %18 = getelementptr inbounds %struct.anon.9, ptr %17, i32 0, i32 0
  %19 = load i32, ptr %18, align 8
  %20 = load i32, ptr %3, align 4
  %21 = icmp ne i32 %19, %20
  br label %22

22:                                               ; preds = %14, %7
  %23 = phi i1 [ false, %7 ], [ %21, %14 ]
  br i1 %23, label %24, label %27

24:                                               ; preds = %22
  %25 = load i32, ptr %5, align 4
  %26 = add nsw i32 %25, 1
  store i32 %26, ptr %5, align 4
  br label %7, !llvm.loop !26

27:                                               ; preds = %22
  %28 = load i8, ptr %4, align 1
  %29 = trunc i8 %28 to i1
  br i1 %29, label %30, label %36

30:                                               ; preds = %27
  %31 = load i32, ptr %5, align 4
  %32 = sext i32 %31 to i64
  %33 = getelementptr inbounds [80 x %struct.anon.9], ptr @_ZZL15errno_to_stringibE5table, i64 0, i64 %32
  %34 = getelementptr inbounds %struct.anon.9, ptr %33, i32 0, i32 1
  %35 = load ptr, ptr %34, align 8
  br label %42

36:                                               ; preds = %27
  %37 = load i32, ptr %5, align 4
  %38 = sext i32 %37 to i64
  %39 = getelementptr inbounds [80 x %struct.anon.9], ptr @_ZZL15errno_to_stringibE5table, i64 0, i64 %38
  %40 = getelementptr inbounds %struct.anon.9, ptr %39, i32 0, i32 2
  %41 = load ptr, ptr %40, align 8
  br label %42

42:                                               ; preds = %36, %30
  %43 = phi ptr [ %35, %30 ], [ %41, %36 ]
  ret ptr %43
}

; Function Attrs: mustprogress nounwind uwtable
define hidden noundef ptr @_ZN2os10errno_nameEi(i32 noundef %0) #1 align 2 {
  %2 = alloca i32, align 4
  store i32 %0, ptr %2, align 4
  %3 = load i32, ptr %2, align 4
  %4 = call noundef ptr @_ZL15errno_to_stringib(i32 noundef %3, i1 noundef zeroext true)
  ret ptr %4
}